target datalayout = "e-m:e-p270:32:32-p271:32:32-p272:64:64-i64:64-i128:128-f80:128-n8:16:32:64-S128"
target triple = "x86_64-unknown-linux-gnu"

%class.anon.138 = type { ptr }
%"class.std::_Sp_counted_base" = type { ptr, i32, i32 }
%"class.std::_Sp_counted_deleter" = type { %"class.std::_Sp_counted_base", %"class.std::_Sp_counted_deleter<toku::locktree *, (lambda at /home/dtcxzyw/WorkSpace/Projects/compilers/llvm-opt-benchmark/bench/rocksdb/rocksdb/utilities/transactions/lock/range/range_tree/range_tree_lock_manager.cc:366:11), std::allocator<void>, __gnu_cxx::_S_atomic>::_Impl" }
%"class.std::_Sp_counted_deleter<toku::locktree *, (lambda at /home/dtcxzyw/WorkSpace/Projects/compilers/llvm-opt-benchmark/bench/rocksdb/rocksdb/utilities/transactions/lock/range/range_tree/range_tree_lock_manager.cc:366:11), std::allocator<void>, __gnu_cxx::_S_atomic>::_Impl" = type { %"struct.std::_Sp_ebo_helper", ptr }
%"struct.std::_Sp_ebo_helper" = type { %class.anon.138 }

; Function Attrs: mustprogress nounwind uwtable
define internal noundef nonnull align 8 dereferenceable(8) ptr @"_ZNSt14_Sp_ebo_helperILi0EZN7rocksdb20RangeTreeLockManager15MakeLockTreePtrEPN4toku8locktreeEE3$_0Lb0EE6_S_getERS6_"(ptr noundef nonnull align 8 dereferenceable(8) %__eboh) #1 align 2 {
entry:
  %__eboh.addr = alloca ptr, align 8
  store ptr %__eboh, ptr %__eboh.addr, align 8
  %0 = load ptr, ptr %__eboh.addr, align 8
  %_M_tp = getelementptr inbounds %"struct.std::_Sp_ebo_helper", ptr %0, i32 0, i32 0
  ret ptr %_M_tp
}

; Function Attrs: mustprogress uwtable
define internal void @"_ZZN7rocksdb20RangeTreeLockManager15MakeLockTreePtrEPN4toku8locktreeEENK3$_0clES3_"(ptr noundef nonnull align 8 dereferenceable(8) %this, ptr noundef %p) #0 align 2 {
entry:
  %this.addr = alloca ptr, align 8
  %p.addr = alloca ptr, align 8
  store ptr %this, ptr %this.addr, align 8
  store ptr %p, ptr %p.addr, align 8
  %this1 = load ptr, ptr %this.addr, align 8
  %0 = getelementptr inbounds %class.anon.138, ptr %this1, i32 0, i32 0
  %1 = load ptr, ptr %0, align 8
  %2 = load ptr, ptr %p.addr, align 8
  call void @_ZN4toku16locktree_manager10release_ltEPNS_8locktreeE(ptr noundef nonnull align 8 dereferenceable(392) %1, ptr noundef %2)
  ret void
}

; Function Attrs: mustprogress nounwind uwtable
define internal noundef nonnull align 8 dereferenceable(8) ptr @"_ZNSt19_Sp_counted_deleterIPN4toku8locktreeEZN7rocksdb20RangeTreeLockManager15MakeLockTreePtrES2_E3$_0SaIvELN9__gnu_cxx12_Lock_policyE2EE5_Impl6_M_delEv"(ptr noundef nonnull align 8 dereferenceable(16) %this) #1 align 2 personality ptr @__gxx_personality_v0 {
entry:
  %this.addr = alloca ptr, align 8
  store ptr %this, ptr %this.addr, align 8
  %this1 = load ptr, ptr %this.addr, align 8
  %call = invoke noundef nonnull align 8 dereferenceable(8) ptr @"_ZNSt14_Sp_ebo_helperILi0EZN7rocksdb20RangeTreeLockManager15MakeLockTreePtrEPN4toku8locktreeEE3$_0Lb0EE6_S_getERS6_"(ptr noundef nonnull align 8 dereferenceable(8) %this1)
          to label %invoke.cont unwind label %terminate.lpad

invoke.cont:                                      ; preds = %entry
  ret ptr %call

terminate.lpad:                                   ; preds = %entry
  %0 = landingpad { ptr, i32 }
          catch ptr null
  %1 = extractvalue { ptr, i32 } %0, 0
  call void @__clang_call_terminate(ptr %1) #18
  unreachable
}

; Function Attrs: mustprogress nounwind uwtable
define internal void @"_ZNSt19_Sp_counted_deleterIPN4toku8locktreeEZN7rocksdb20RangeTreeLockManager15MakeLockTreePtrES2_E3$_0SaIvELN9__gnu_cxx12_Lock_policyE2EE10_M_disposeEv"(ptr noundef nonnull align 8 dereferenceable(32) %this) unnamed_addr #1 align 2 personality ptr @__gxx_personality_v0 {
entry:
  %this.addr = alloca ptr, align 8
  store ptr %this, ptr %this.addr, align 8
  %this1 = load ptr, ptr %this.addr, align 8
  %_M_impl = getelementptr inbounds %"class.std::_Sp_counted_deleter", ptr %this1, i32 0, i32 1
  %call = call noundef nonnull align 8 dereferenceable(8) ptr @"_ZNSt19_Sp_counted_deleterIPN4toku8locktreeEZN7rocksdb20RangeTreeLockManager15MakeLockTreePtrES2_E3$_0SaIvELN9__gnu_cxx12_Lock_policyE2EE5_Impl6_M_delEv"(ptr noundef nonnull align 8 dereferenceable(16) %_M_impl) #3
  %_M_impl2 = getelementptr inbounds %"class.std::_Sp_counted_deleter", ptr %this1, i32 0, i32 1
  %_M_ptr = getelementptr inbounds %"class.std::_Sp_counted_deleter<toku::locktree *, (lambda at /home/dtcxzyw/WorkSpace/Projects/compilers/llvm-opt-benchmark/bench/rocksdb/rocksdb/utilities/transactions/lock/range/range_tree/range_tree_lock_manager.cc:366:11), std::allocator<void>, __gnu_cxx::_S_atomic>::_Impl", ptr %_M_impl2, i32 0, i32 1
  %0 = load ptr, ptr %_M_ptr, align 8
  invoke void @"_ZZN7rocksdb20RangeTreeLockManager15MakeLockTreePtrEPN4toku8locktreeEENK3$_0clES3_"(ptr noundef nonnull align 8 dereferenceable(8) %call, ptr noundef %0)
          to label %invoke.cont unwind label %terminate.lpad

invoke.cont:                                      ; preds = %entry
  ret void

terminate.lpad:                                   ; preds = %entry
  %1 = landingpad { ptr, i32 }
          catch ptr null
  %2 = extractvalue { ptr, i32 } %1, 0
  call void @__clang_call_terminate(ptr %2) #18
  unreachable
}