; Function Attrs: mustprogress nounwind uwtable
define internal void @"_ZNSt19_Sp_counted_deleterIPN4toku8locktreeEZN7rocksdb20RangeTreeLockManager15MakeLockTreePtrES2_E3$_0SaIvELN9__gnu_cxx12_Lock_policyE2EE10_M_disposeEv"(ptr nocapture noundef nonnull readonly align 8 dereferenceable(32) %this) unnamed_addr #0 align 2 personality ptr @__gxx_personality_v0 {
entry:
  %_M_impl = getelementptr inbounds i8, ptr %this, i64 16
  %_M_ptr = getelementptr inbounds i8, ptr %this, i64 24
  %0 = load ptr, ptr %_M_ptr, align 8
  %call.val = load ptr, ptr %_M_impl, align 8
  invoke void @_ZN4toku16locktree_manager10release_ltEPNS_8locktreeE(ptr noundef nonnull align 8 dereferenceable(392) %call.val, ptr noundef %0)
          to label %invoke.cont unwind label %terminate.lpad

invoke.cont:                                      ; preds = %entry
  ret void

terminate.lpad:                                   ; preds = %entry
  %1 = landingpad { ptr, i32 }
          catch ptr null
  %2 = extractvalue { ptr, i32 } %1, 0
  tail call void @__clang_call_terminate(ptr %2) #26
  unreachable
}